; ModuleID = '7/546.c'
source_filename = "7/546.c"
target datalayout = "e-m:e-p270:32:32-p271:32:32-p272:64:64-i64:64-f80:128-n8:16:32:64-S128"
target triple = "x86_64-pc-linux-gnu"

@.str = private unnamed_addr constant [3 x i8] c"%s\00", align 1
@.str.1 = private unnamed_addr constant [3 x i8] c"%c\00", align 1

; Function Attrs: noinline nounwind uwtable
define dso_local i32 @main() #0 {
  %1 = alloca i32, align 4
  %2 = alloca i32, align 4
  %3 = alloca i32, align 4
  %4 = alloca i32, align 4
  %5 = alloca i32, align 4
  %6 = alloca i32, align 4
  %7 = alloca i32, align 4
  %8 = alloca [300 x i8], align 16
  %9 = alloca [300 x i8], align 16
  %10 = alloca [300 x i8], align 16
  %11 = alloca [300 x i8], align 16
  store i32 0, i32* %1, align 4
  store i32 0, i32* %7, align 4
  %12 = getelementptr inbounds [300 x i8], [300 x i8]* %8, i64 0, i64 0
  %13 = call i32 (i8*, ...) bitcast (i32 (...)* @gets to i32 (i8*, ...)*)(i8* %12)
  %14 = getelementptr inbounds [300 x i8], [300 x i8]* %9, i64 0, i64 0
  %15 = call i32 (i8*, ...) bitcast (i32 (...)* @gets to i32 (i8*, ...)*)(i8* %14)
  %16 = getelementptr inbounds [300 x i8], [300 x i8]* %10, i64 0, i64 0
  %17 = call i32 (i8*, ...) bitcast (i32 (...)* @gets to i32 (i8*, ...)*)(i8* %16)
  %18 = getelementptr inbounds [300 x i8], [300 x i8]* %8, i64 0, i64 0
  %19 = call i64 @strlen(i8* %18) #3
  %20 = trunc i64 %19 to i32
  store i32 %20, i32* %5, align 4
  %21 = getelementptr inbounds [300 x i8], [300 x i8]* %9, i64 0, i64 0
  %22 = call i64 @strlen(i8* %21) #3
  %23 = trunc i64 %22 to i32
  store i32 %23, i32* %6, align 4
  store i32 0, i32* %2, align 4
  br label %24

24:                                               ; preds = %84, %0
  %25 = load i32, i32* %2, align 4
  %26 = load i32, i32* %5, align 4
  %27 = icmp slt i32 %25, %26
  br i1 %27, label %28, label %87

28:                                               ; preds = %24
  store i32 0, i32* %4, align 4
  %29 = load i32, i32* %2, align 4
  store i32 %29, i32* %3, align 4
  br label %30

30:                                               ; preds = %56, %28
  %31 = load i32, i32* %3, align 4
  %32 = load i32, i32* %6, align 4
  %33 = load i32, i32* %2, align 4
  %34 = add nsw i32 %32, %33
  %35 = icmp slt i32 %31, %34
  br i1 %35, label %36, label %59

36:                                               ; preds = %30
  %37 = load i32, i32* %3, align 4
  %38 = sext i32 %37 to i64
  %39 = getelementptr inbounds [300 x i8], [300 x i8]* %8, i64 0, i64 %38
  %40 = load i8, i8* %39, align 1
  %41 = load i32, i32* %4, align 4
  %42 = add nsw i32 %41, 1
  store i32 %42, i32* %4, align 4
  %43 = sext i32 %41 to i64
  %44 = getelementptr inbounds [300 x i8], [300 x i8]* %11, i64 0, i64 %43
  store i8 %40, i8* %44, align 1
  %45 = load i32, i32* %3, align 4
  %46 = load i32, i32* %6, align 4
  %47 = load i32, i32* %2, align 4
  %48 = add nsw i32 %46, %47
  %49 = sub nsw i32 %48, 1
  %50 = icmp eq i32 %45, %49
  br i1 %50, label %51, label %55

51:                                               ; preds = %36
  %52 = load i32, i32* %4, align 4
  %53 = sext i32 %52 to i64
  %54 = getelementptr inbounds [300 x i8], [300 x i8]* %11, i64 0, i64 %53
  store i8 0, i8* %54, align 1
  br label %55

55:                                               ; preds = %51, %36
  br label %56

56:                                               ; preds = %55
  %57 = load i32, i32* %3, align 4
  %58 = add nsw i32 %57, 1
  store i32 %58, i32* %3, align 4
  br label %30

59:                                               ; preds = %30
  %60 = getelementptr inbounds [300 x i8], [300 x i8]* %11, i64 0, i64 0
  %61 = getelementptr inbounds [300 x i8], [300 x i8]* %9, i64 0, i64 0
  %62 = call i32 @strcmp(i8* %60, i8* %61) #3
  %63 = icmp ne i32 %62, 0
  br i1 %63, label %76, label %64

64:                                               ; preds = %59
  %65 = load i32, i32* %7, align 4
  %66 = icmp eq i32 %65, 0
  br i1 %66, label %67, label %76

67:                                               ; preds = %64
  %68 = load i32, i32* %7, align 4
  %69 = add nsw i32 %68, 1
  store i32 %69, i32* %7, align 4
  %70 = getelementptr inbounds [300 x i8], [300 x i8]* %10, i64 0, i64 0
  %71 = call i32 (i8*, ...) @printf(i8* getelementptr inbounds ([3 x i8], [3 x i8]* @.str, i64 0, i64 0), i8* %70)
  %72 = load i32, i32* %6, align 4
  %73 = sub nsw i32 %72, 1
  %74 = load i32, i32* %2, align 4
  %75 = add nsw i32 %74, %73
  store i32 %75, i32* %2, align 4
  br label %83

76:                                               ; preds = %64, %59
  %77 = load i32, i32* %2, align 4
  %78 = sext i32 %77 to i64
  %79 = getelementptr inbounds [300 x i8], [300 x i8]* %8, i64 0, i64 %78
  %80 = load i8, i8* %79, align 1
  %81 = sext i8 %80 to i32
  %82 = call i32 (i8*, ...) @printf(i8* getelementptr inbounds ([3 x i8], [3 x i8]* @.str.1, i64 0, i64 0), i32 %81)
  br label %83

83:                                               ; preds = %76, %67
  br label %84

84:                                               ; preds = %83
  %85 = load i32, i32* %2, align 4
  %86 = add nsw i32 %85, 1
  store i32 %86, i32* %2, align 4
  br label %24

87:                                               ; preds = %24
  %88 = load i32, i32* %1, align 4
  ret i32 %88
}

declare dso_local i32 @gets(...) #1

; Function Attrs: nounwind readonly
declare dso_local i64 @strlen(i8*) #2

; Function Attrs: nounwind readonly
declare dso_local i32 @strcmp(i8*, i8*) #2

declare dso_local i32 @printf(i8*, ...) #1


!llvm.module.flags = !{!0}
!llvm.ident = !{!1}

!0 = !{i32 1, !"wchar_size", i32 4}
!1 = !{!"clang version 10.0.0-4ubuntu1 "}
