; ModuleID = 'source-C-CXX/6/546.c'
source_filename = "source-C-CXX/6/546.c"
target datalayout = "e-m:e-p270:32:32-p271:32:32-p272:64:64-i64:64-f80:128-n8:16:32:64-S128"
target triple = "x86_64-pc-linux-gnu"

@.str = private unnamed_addr constant [3 x i8] c"%s\00", align 1

; Function Attrs: nounwind sspstrong uwtable
define dso_local i32 @main() local_unnamed_addr #0 {
  %1 = alloca [300 x i8], align 16
  %2 = alloca [300 x i8], align 16
  %3 = alloca [300 x i8], align 16
  %4 = alloca [300 x i8], align 16
  %5 = getelementptr inbounds [300 x i8], [300 x i8]* %1, i64 0, i64 0
  call void @llvm.lifetime.start.p0i8(i64 300, i8* nonnull %5) #6
  %6 = getelementptr inbounds [300 x i8], [300 x i8]* %2, i64 0, i64 0
  call void @llvm.lifetime.start.p0i8(i64 300, i8* nonnull %6) #6
  %7 = getelementptr inbounds [300 x i8], [300 x i8]* %3, i64 0, i64 0
  call void @llvm.lifetime.start.p0i8(i64 300, i8* nonnull %7) #6
  %8 = getelementptr inbounds [300 x i8], [300 x i8]* %4, i64 0, i64 0
  call void @llvm.lifetime.start.p0i8(i64 300, i8* nonnull %8) #6
  %9 = call i32 (i8*, ...) bitcast (i32 (...)* @gets to i32 (i8*, ...)*)(i8* nonnull %5) #6
  %10 = call i32 (i8*, ...) bitcast (i32 (...)* @gets to i32 (i8*, ...)*)(i8* nonnull %6) #6
  %11 = call i32 (i8*, ...) bitcast (i32 (...)* @gets to i32 (i8*, ...)*)(i8* nonnull %7) #6
  %12 = call i64 @strlen(i8* noundef nonnull %5) #7
  %13 = trunc i64 %12 to i32
  %14 = call i64 @strlen(i8* noundef nonnull %6) #7
  %15 = trunc i64 %14 to i32
  %16 = icmp sgt i32 %13, 0
  br i1 %16, label %17, label %59

17:                                               ; preds = %0
  %18 = icmp sgt i32 %15, 0
  br label %19

19:                                               ; preds = %17, %54
  %20 = phi i32 [ %56, %54 ], [ 0, %17 ]
  %21 = phi i32 [ %57, %54 ], [ 0, %17 ]
  %22 = add i32 %21, %15
  %23 = add i32 %22, -1
  br i1 %18, label %24, label %41

24:                                               ; preds = %19
  %25 = sext i32 %21 to i64
  %26 = sext i32 %22 to i64
  %27 = sext i32 %23 to i64
  br label %28

28:                                               ; preds = %24, %38
  %29 = phi i64 [ 0, %24 ], [ %33, %38 ]
  %30 = phi i64 [ %25, %24 ], [ %39, %38 ]
  %31 = getelementptr inbounds [300 x i8], [300 x i8]* %1, i64 0, i64 %30
  %32 = load i8, i8* %31, align 1, !tbaa !5
  %33 = add nuw nsw i64 %29, 1
  %34 = getelementptr inbounds [300 x i8], [300 x i8]* %4, i64 0, i64 %29
  store i8 %32, i8* %34, align 1, !tbaa !5
  %35 = icmp eq i64 %30, %27
  br i1 %35, label %36, label %38

36:                                               ; preds = %28
  %37 = getelementptr inbounds [300 x i8], [300 x i8]* %4, i64 0, i64 %33
  store i8 0, i8* %37, align 1, !tbaa !5
  br label %38

38:                                               ; preds = %28, %36
  %39 = add nsw i64 %30, 1
  %40 = icmp slt i64 %39, %26
  br i1 %40, label %28, label %41, !llvm.loop !8

41:                                               ; preds = %38, %19
  %42 = call i32 @strcmp(i8* noundef nonnull %8, i8* noundef nonnull %6) #7
  %43 = icmp eq i32 %42, 0
  %44 = icmp eq i32 %20, 0
  %45 = select i1 %43, i1 %44, i1 false
  br i1 %45, label %46, label %48

46:                                               ; preds = %41
  %47 = call i32 (i8*, ...) @printf(i8* nonnull dereferenceable(1) getelementptr inbounds ([3 x i8], [3 x i8]* @.str, i64 0, i64 0), i8* nonnull %7)
  br label %54

48:                                               ; preds = %41
  %49 = sext i32 %21 to i64
  %50 = getelementptr inbounds [300 x i8], [300 x i8]* %1, i64 0, i64 %49
  %51 = load i8, i8* %50, align 1, !tbaa !5
  %52 = sext i8 %51 to i32
  %53 = call i32 @putchar(i32 %52)
  br label %54

54:                                               ; preds = %46, %48
  %55 = phi i32 [ %23, %46 ], [ %21, %48 ]
  %56 = phi i32 [ 1, %46 ], [ %20, %48 ]
  %57 = add nsw i32 %55, 1
  %58 = icmp slt i32 %57, %13
  br i1 %58, label %19, label %59, !llvm.loop !10

59:                                               ; preds = %54, %0
  call void @llvm.lifetime.end.p0i8(i64 300, i8* nonnull %8) #6
  call void @llvm.lifetime.end.p0i8(i64 300, i8* nonnull %7) #6
  call void @llvm.lifetime.end.p0i8(i64 300, i8* nonnull %6) #6
  call void @llvm.lifetime.end.p0i8(i64 300, i8* nonnull %5) #6
  ret i32 0
}

; Function Attrs: argmemonly mustprogress nofree nosync nounwind willreturn
declare void @llvm.lifetime.start.p0i8(i64 immarg, i8* nocapture) #1

declare i32 @gets(...) local_unnamed_addr #2

; Function Attrs: argmemonly mustprogress nofree nounwind readonly willreturn
declare i64 @strlen(i8* nocapture) local_unnamed_addr #3

; Function Attrs: argmemonly mustprogress nofree nounwind readonly willreturn
declare i32 @strcmp(i8* nocapture, i8* nocapture) local_unnamed_addr #3

; Function Attrs: nofree nounwind
declare noundef i32 @printf(i8* nocapture noundef readonly, ...) local_unnamed_addr #4

; Function Attrs: argmemonly mustprogress nofree nosync nounwind willreturn
declare void @llvm.lifetime.end.p0i8(i64 immarg, i8* nocapture) #1

; Function Attrs: nofree nounwind
declare noundef i32 @putchar(i32 noundef) local_unnamed_addr #5


!llvm.module.flags = !{!0, !1, !2, !3}
!llvm.ident = !{!4}

!0 = !{i32 1, !"wchar_size", i32 4}
!1 = !{i32 7, !"PIC Level", i32 2}
!2 = !{i32 7, !"PIE Level", i32 2}
!3 = !{i32 7, !"uwtable", i32 1}
!4 = !{!"clang version 13.0.0"}
!5 = !{!6, !6, i64 0}
!6 = !{!"omnipotent char", !7, i64 0}
!7 = !{!"Simple C/C++ TBAA"}
!8 = distinct !{!8, !9}
!9 = !{!"llvm.loop.mustprogress"}
!10 = distinct !{!10, !9}
